target datalayout = "e-m:e-p270:32:32-p271:32:32-p272:64:64-i64:64-i128:128-f80:128-n8:16:32:64-S128"
target triple = "x86_64-unknown-linux-gnu"

%struct.b2Vec2 = type { float, float }
%struct.b2JointUserData = type { i64 }
%class.b2RevoluteJoint = type { %class.b2Joint, %struct.b2Vec2, %struct.b2Vec2, %struct.b2Vec2, float, float, float, i8, float, float, i8, float, float, float, i32, i32, %struct.b2Vec2, %struct.b2Vec2, %struct.b2Vec2, %struct.b2Vec2, float, float, float, float, %struct.b2Mat22, float, float }
%class.b2Joint = type { ptr, i32, ptr, ptr, %struct.b2JointEdge, %struct.b2JointEdge, ptr, ptr, i32, i8, i8, %struct.b2JointUserData }
%struct.b2JointEdge = type { ptr, ptr, ptr, ptr }
%struct.b2Mat22 = type { %struct.b2Vec2, %struct.b2Vec2 }

; Function Attrs: mustprogress nounwind uwtable
define noundef float @_ZNK15b2RevoluteJoint17GetReactionTorqueEf(ptr noundef nonnull align 8 dereferenceable(272) %this, float noundef %inv_dt) unnamed_addr #2 align 2 {
entry:
  %this.addr = alloca ptr, align 8
  %inv_dt.addr = alloca float, align 4
  store ptr %this, ptr %this.addr, align 8
  store float %inv_dt, ptr %inv_dt.addr, align 4
  %this1 = load ptr, ptr %this.addr, align 8
  %0 = load float, ptr %inv_dt.addr, align 4
  %m_motorImpulse = getelementptr inbounds %class.b2RevoluteJoint, ptr %this1, i32 0, i32 4
  %1 = load float, ptr %m_motorImpulse, align 8
  %m_lowerImpulse = getelementptr inbounds %class.b2RevoluteJoint, ptr %this1, i32 0, i32 5
  %2 = load float, ptr %m_lowerImpulse, align 4
  %add = fadd float %1, %2
  %m_upperImpulse = getelementptr inbounds %class.b2RevoluteJoint, ptr %this1, i32 0, i32 6
  %3 = load float, ptr %m_upperImpulse, align 8
  %sub = fsub float %add, %3
  %mul = fmul float %0, %sub
  ret float %mul
}