; Function Attrs: mustprogress nofree norecurse nosync nounwind willreturn memory(argmem: read) uwtable
define noundef float @_ZNK15b2RevoluteJoint17GetReactionTorqueEf(ptr nocapture noundef nonnull readonly align 8 dereferenceable(272) %this, float noundef %inv_dt) unnamed_addr #8 align 2 {
entry:
  %m_motorImpulse = getelementptr inbounds i8, ptr %this, i64 152
  %0 = load float, ptr %m_motorImpulse, align 8
  %m_lowerImpulse = getelementptr inbounds i8, ptr %this, i64 156
  %1 = load float, ptr %m_lowerImpulse, align 4
  %add = fadd float %0, %1
  %m_upperImpulse = getelementptr inbounds i8, ptr %this, i64 160
  %2 = load float, ptr %m_upperImpulse, align 8
  %sub = fsub float %add, %2
  %mul = fmul float %sub, %inv_dt
  ret float %mul
}